target datalayout = "e-m:e-p270:32:32-p271:32:32-p272:64:64-i64:64-i128:128-f80:128-n8:16:32:64-S128"
target triple = "x86_64-pc-linux-gnu"

%struct._DlsMat = type { i32, i64, i64, i64, i64, i64, i64, ptr, i64, ptr }

; Function Attrs: nounwind uwtable
define void @SUNDlsMat_SetToZero(ptr noundef %0) #0 {
  %2 = alloca ptr, align 8
  %3 = alloca i64, align 8
  %4 = alloca i64, align 8
  %5 = alloca i64, align 8
  %6 = alloca ptr, align 8
  store ptr %0, ptr %2, align 8, !tbaa !7
  call void @llvm.lifetime.start.p0(i64 8, ptr %3) #4
  call void @llvm.lifetime.start.p0(i64 8, ptr %4) #4
  call void @llvm.lifetime.start.p0(i64 8, ptr %5) #4
  call void @llvm.lifetime.start.p0(i64 8, ptr %6) #4
  %7 = load ptr, ptr %2, align 8, !tbaa !7
  %8 = getelementptr inbounds nuw %struct._DlsMat, ptr %7, i32 0, i32 0
  %9 = load i32, ptr %8, align 8, !tbaa !21
  switch i32 %9, label %89 [
    i32 1, label %10
    i32 2, label %42
  ]

10:                                               ; preds = %1
  store i64 0, ptr %4, align 8, !tbaa !3
  br label %11

11:                                               ; preds = %38, %10
  %12 = load i64, ptr %4, align 8, !tbaa !3
  %13 = load ptr, ptr %2, align 8, !tbaa !7
  %14 = getelementptr inbounds nuw %struct._DlsMat, ptr %13, i32 0, i32 2
  %15 = load i64, ptr %14, align 8, !tbaa !18
  %16 = icmp slt i64 %12, %15
  br i1 %16, label %17, label %41

17:                                               ; preds = %11
  %18 = load ptr, ptr %2, align 8, !tbaa !7
  %19 = getelementptr inbounds nuw %struct._DlsMat, ptr %18, i32 0, i32 9
  %20 = load ptr, ptr %19, align 8, !tbaa !15
  %21 = load i64, ptr %4, align 8, !tbaa !3
  %22 = getelementptr inbounds ptr, ptr %20, i64 %21
  %23 = load ptr, ptr %22, align 8, !tbaa !16
  store ptr %23, ptr %6, align 8, !tbaa !16
  store i64 0, ptr %3, align 8, !tbaa !3
  br label %24

24:                                               ; preds = %34, %17
  %25 = load i64, ptr %3, align 8, !tbaa !3
  %26 = load ptr, ptr %2, align 8, !tbaa !7
  %27 = getelementptr inbounds nuw %struct._DlsMat, ptr %26, i32 0, i32 1
  %28 = load i64, ptr %27, align 8, !tbaa !17
  %29 = icmp slt i64 %25, %28
  br i1 %29, label %30, label %37

30:                                               ; preds = %24
  %31 = load ptr, ptr %6, align 8, !tbaa !16
  %32 = load i64, ptr %3, align 8, !tbaa !3
  %33 = getelementptr inbounds double, ptr %31, i64 %32
  store double 0.000000e+00, ptr %33, align 8, !tbaa !32
  br label %34

34:                                               ; preds = %30
  %35 = load i64, ptr %3, align 8, !tbaa !3
  %36 = add nsw i64 %35, 1
  store i64 %36, ptr %3, align 8, !tbaa !3
  br label %24

37:                                               ; preds = %24
  br label %38

38:                                               ; preds = %37
  %39 = load i64, ptr %4, align 8, !tbaa !3
  %40 = add nsw i64 %39, 1
  store i64 %40, ptr %4, align 8, !tbaa !3
  br label %11

41:                                               ; preds = %11
  br label %89

42:                                               ; preds = %1
  %43 = load ptr, ptr %2, align 8, !tbaa !7
  %44 = getelementptr inbounds nuw %struct._DlsMat, ptr %43, i32 0, i32 4
  %45 = load i64, ptr %44, align 8, !tbaa !23
  %46 = load ptr, ptr %2, align 8, !tbaa !7
  %47 = getelementptr inbounds nuw %struct._DlsMat, ptr %46, i32 0, i32 5
  %48 = load i64, ptr %47, align 8, !tbaa !24
  %49 = add nsw i64 %45, %48
  %50 = add nsw i64 %49, 1
  store i64 %50, ptr %5, align 8, !tbaa !3
  store i64 0, ptr %4, align 8, !tbaa !3
  br label %51

51:                                               ; preds = %85, %42
  %52 = load i64, ptr %4, align 8, !tbaa !3
  %53 = load ptr, ptr %2, align 8, !tbaa !7
  %54 = getelementptr inbounds nuw %struct._DlsMat, ptr %53, i32 0, i32 1
  %55 = load i64, ptr %54, align 8, !tbaa !17
  %56 = icmp slt i64 %52, %55
  br i1 %56, label %57, label %88

57:                                               ; preds = %51
  %58 = load ptr, ptr %2, align 8, !tbaa !7
  %59 = getelementptr inbounds nuw %struct._DlsMat, ptr %58, i32 0, i32 9
  %60 = load ptr, ptr %59, align 8, !tbaa !15
  %61 = load i64, ptr %4, align 8, !tbaa !3
  %62 = getelementptr inbounds ptr, ptr %60, i64 %61
  %63 = load ptr, ptr %62, align 8, !tbaa !16
  %64 = load ptr, ptr %2, align 8, !tbaa !7
  %65 = getelementptr inbounds nuw %struct._DlsMat, ptr %64, i32 0, i32 6
  %66 = load i64, ptr %65, align 8, !tbaa !25
  %67 = getelementptr inbounds double, ptr %63, i64 %66
  %68 = load ptr, ptr %2, align 8, !tbaa !7
  %69 = getelementptr inbounds nuw %struct._DlsMat, ptr %68, i32 0, i32 4
  %70 = load i64, ptr %69, align 8, !tbaa !23
  %71 = sub i64 0, %70
  %72 = getelementptr inbounds double, ptr %67, i64 %71
  store ptr %72, ptr %6, align 8, !tbaa !16
  store i64 0, ptr %3, align 8, !tbaa !3
  br label %73

73:                                               ; preds = %81, %57
  %74 = load i64, ptr %3, align 8, !tbaa !3
  %75 = load i64, ptr %5, align 8, !tbaa !3
  %76 = icmp slt i64 %74, %75
  br i1 %76, label %77, label %84

77:                                               ; preds = %73
  %78 = load ptr, ptr %6, align 8, !tbaa !16
  %79 = load i64, ptr %3, align 8, !tbaa !3
  %80 = getelementptr inbounds double, ptr %78, i64 %79
  store double 0.000000e+00, ptr %80, align 8, !tbaa !32
  br label %81

81:                                               ; preds = %77
  %82 = load i64, ptr %3, align 8, !tbaa !3
  %83 = add nsw i64 %82, 1
  store i64 %83, ptr %3, align 8, !tbaa !3
  br label %73

84:                                               ; preds = %73
  br label %85

85:                                               ; preds = %84
  %86 = load i64, ptr %4, align 8, !tbaa !3
  %87 = add nsw i64 %86, 1
  store i64 %87, ptr %4, align 8, !tbaa !3
  br label %51

88:                                               ; preds = %51
  br label %89

89:                                               ; preds = %1, %88, %41
  call void @llvm.lifetime.end.p0(i64 8, ptr %6) #4
  call void @llvm.lifetime.end.p0(i64 8, ptr %5) #4
  call void @llvm.lifetime.end.p0(i64 8, ptr %4) #4
  call void @llvm.lifetime.end.p0(i64 8, ptr %3) #4
  ret void
}